; Function Attrs: mustprogress uwtable
define void @_ZN7rocksdb28IteratorSeekQueryTraceRecordC2ENS0_8SeekTypeEjRKNSt7__cxx1112basic_stringIcSt11char_traitsIcESaIcEEES9_S9_m(ptr noundef nonnull align 8 dereferenceable(312) %this, i32 noundef %seek_type, i32 noundef %column_family_id, ptr noundef nonnull align 8 dereferenceable(32) %key, ptr noundef nonnull align 8 dereferenceable(32) %lower_bound, ptr noundef nonnull align 8 dereferenceable(32) %upper_bound, i64 noundef %timestamp) unnamed_addr #2 align 2 personality ptr @__gxx_personality_v0 {
entry:
  tail call void @_ZN7rocksdb24IteratorQueryTraceRecordC2ERKNSt7__cxx1112basic_stringIcSt11char_traitsIcESaIcEEES8_m(ptr noundef nonnull align 8 dereferenceable(208) %this, ptr noundef nonnull align 8 dereferenceable(32) %lower_bound, ptr noundef nonnull align 8 dereferenceable(32) %upper_bound, i64 noundef %timestamp)
  store ptr getelementptr inbounds ({ [12 x ptr] }, ptr @_ZTVN7rocksdb28IteratorSeekQueryTraceRecordE, i64 0, i32 0, i64 2), ptr %this, align 8
  %type_ = getelementptr inbounds i8, ptr %this, i64 208
  store i32 %seek_type, ptr %type_, align 8
  %cf_id_ = getelementptr inbounds i8, ptr %this, i64 212
  store i32 %column_family_id, ptr %cf_id_, align 4
  %key_ = getelementptr inbounds i8, ptr %this, i64 216
  store ptr @.str, ptr %key_, align 8
  %size_.i.i = getelementptr inbounds i8, ptr %this, i64 224
  store i64 0, ptr %size_.i.i, align 8
  %0 = getelementptr inbounds i8, ptr %this, i64 232
  invoke void @_ZN7rocksdb9CleanableC2Ev(ptr noundef nonnull align 8 dereferenceable(32) %0)
          to label %invoke.cont unwind label %lpad

invoke.cont:                                      ; preds = %entry
  %self_space_.i = getelementptr inbounds i8, ptr %this, i64 264
  tail call void @_ZNSt7__cxx1112basic_stringIcSt11char_traitsIcESaIcEEC1Ev(ptr noundef nonnull align 8 dereferenceable(32) %self_space_.i) #17
  %pinned_.i = getelementptr inbounds i8, ptr %this, i64 304
  store i8 0, ptr %pinned_.i, align 8
  %buf_.i = getelementptr inbounds i8, ptr %this, i64 296
  store ptr %self_space_.i, ptr %buf_.i, align 8
  %call.i = tail call noundef ptr @_ZNKSt7__cxx1112basic_stringIcSt11char_traitsIcESaIcEE4dataEv(ptr noundef nonnull align 8 dereferenceable(32) %key) #17
  %call2.i = tail call noundef i64 @_ZNKSt7__cxx1112basic_stringIcSt11char_traitsIcESaIcEE4sizeEv(ptr noundef nonnull align 8 dereferenceable(32) %key) #17
  %1 = load ptr, ptr %buf_.i, align 8
  %call3.i5 = invoke noundef nonnull align 8 dereferenceable(32) ptr @_ZNSt7__cxx1112basic_stringIcSt11char_traitsIcESaIcEE6assignEPKcm(ptr noundef nonnull align 8 dereferenceable(32) %1, ptr noundef %call.i, i64 noundef %call2.i)
          to label %invoke.cont5 unwind label %lpad3

invoke.cont5:                                     ; preds = %invoke.cont
  %2 = load ptr, ptr %buf_.i, align 8
  %call5.i = tail call noundef ptr @_ZNSt7__cxx1112basic_stringIcSt11char_traitsIcESaIcEE4dataEv(ptr noundef nonnull align 8 dereferenceable(32) %2) #17
  store ptr %call5.i, ptr %key_, align 8
  %3 = load ptr, ptr %buf_.i, align 8
  %call7.i = tail call noundef i64 @_ZNKSt7__cxx1112basic_stringIcSt11char_traitsIcESaIcEE4sizeEv(ptr noundef nonnull align 8 dereferenceable(32) %3) #17
  store i64 %call7.i, ptr %size_.i.i, align 8
  ret void

lpad:                                             ; preds = %entry
  %4 = landingpad { ptr, i32 }
          cleanup
  br label %ehcleanup

lpad3:                                            ; preds = %invoke.cont
  %5 = landingpad { ptr, i32 }
          cleanup
  tail call void @_ZNSt7__cxx1112basic_stringIcSt11char_traitsIcESaIcEED1Ev(ptr noundef nonnull align 8 dereferenceable(32) %self_space_.i) #17
  tail call void @_ZN7rocksdb9CleanableD2Ev(ptr noundef nonnull align 8 dereferenceable(32) %0) #17
  br label %ehcleanup

ehcleanup:                                        ; preds = %lpad3, %lpad
  %.pn = phi { ptr, i32 } [ %5, %lpad3 ], [ %4, %lpad ]
  tail call void @_ZN7rocksdb24IteratorQueryTraceRecordD2Ev(ptr noundef nonnull align 8 dereferenceable(208) %this) #17
  resume { ptr, i32 } %.pn
}